target datalayout = "e-m:e-p270:32:32-p271:32:32-p272:64:64-i64:64-i128:128-f80:128-n8:16:32:64-S128"
target triple = "x86_64-pc-linux-gnu"

%"class.std::error_code" = type { i32, ptr }

; Function Attrs: mustprogress nounwind uwtable
define linkonce_odr hidden void @_ZNSt10error_codeC2EiRKNSt3_V214error_categoryE(ptr noundef nonnull align 8 dereferenceable(16) %0, i32 noundef %1, ptr noundef nonnull align 8 dereferenceable(8) %2) unnamed_addr #3 comdat align 2 {
  %4 = alloca ptr, align 8
  %5 = alloca i32, align 4
  %6 = alloca ptr, align 8
  store ptr %0, ptr %4, align 8
  store i32 %1, ptr %5, align 4
  store ptr %2, ptr %6, align 8
  %7 = load ptr, ptr %4, align 8
  %8 = getelementptr inbounds nuw %"class.std::error_code", ptr %7, i32 0, i32 0
  %9 = load i32, ptr %5, align 4
  store i32 %9, ptr %8, align 8
  %10 = getelementptr inbounds nuw %"class.std::error_code", ptr %7, i32 0, i32 1
  %11 = load ptr, ptr %6, align 8
  store ptr %11, ptr %10, align 8
  ret void
}

; Function Attrs: mustprogress nounwind uwtable
define linkonce_odr hidden { i32, ptr } @_ZN4llvm15make_error_codeENS_16sampleprof_errorE(i32 noundef %0) #3 comdat {
  %2 = alloca %"class.std::error_code", align 8
  %3 = alloca i32, align 4
  store i32 %0, ptr %3, align 4
  %4 = load i32, ptr %3, align 4
  %5 = call noundef nonnull align 8 dereferenceable(8) ptr @_ZN4llvm19sampleprof_categoryEv()
  call void @_ZNSt10error_codeC2EiRKNSt3_V214error_categoryE(ptr noundef nonnull align 8 dereferenceable(16) %2, i32 noundef %4, ptr noundef nonnull align 8 dereferenceable(8) %5) #4
  %6 = load { i32, ptr }, ptr %2, align 8
  ret { i32, ptr } %6
}

; Function Attrs: mustprogress nounwind uwtable
define linkonce_odr hidden void @_ZNSt10error_codeC2IN4llvm16sampleprof_errorEvEET_(ptr noundef nonnull align 8 dereferenceable(16) %0, i32 noundef %1) unnamed_addr #3 comdat align 2 {
  %3 = alloca ptr, align 8
  %4 = alloca i32, align 4
  %5 = alloca %"class.std::error_code", align 8
  store ptr %0, ptr %3, align 8
  store i32 %1, ptr %4, align 4
  %6 = load ptr, ptr %3, align 8
  %7 = load i32, ptr %4, align 4
  %8 = call { i32, ptr } @_ZN4llvm15make_error_codeENS_16sampleprof_errorE(i32 noundef %7)
  %9 = getelementptr inbounds nuw { i32, ptr }, ptr %5, i32 0, i32 0
  %10 = extractvalue { i32, ptr } %8, 0
  store i32 %10, ptr %9, align 8
  %11 = getelementptr inbounds nuw { i32, ptr }, ptr %5, i32 0, i32 1
  %12 = extractvalue { i32, ptr } %8, 1
  store ptr %12, ptr %11, align 8
  call void @llvm.memcpy.p0.p0.i64(ptr align 8 %6, ptr align 8 %5, i64 16, i1 false)
  ret void
}

; Function Attrs: mustprogress nounwind uwtable
define linkonce_odr hidden noundef zeroext i1 @_ZNKSt10error_codecvbEv(ptr noundef nonnull align 8 dereferenceable(16) %0) #3 comdat align 2 {
  %2 = alloca ptr, align 8
  store ptr %0, ptr %2, align 8
  %3 = load ptr, ptr %2, align 8
  %4 = getelementptr inbounds nuw %"class.std::error_code", ptr %3, i32 0, i32 0
  %5 = load i32, ptr %4, align 8
  %6 = icmp ne i32 %5, 0
  ret i1 %6
}

; Function Attrs: mustprogress nounwind uwtable
define dso_local { i32, ptr } @_ZN4llvm10sampleprof28SampleProfileWriterExtBinary18writeDefaultLayoutERKNS0_16SampleProfileMapE(ptr noundef nonnull align 8 dereferenceable(576) %0, ptr noundef nonnull align 8 dereferenceable(56) %1) #3 align 2 {
  %3 = alloca %"class.std::error_code", align 8
  %4 = alloca ptr, align 8
  %5 = alloca ptr, align 8
  store ptr %0, ptr %4, align 8
  store ptr %1, ptr %5, align 8
  %6 = load ptr, ptr %4, align 8
  %7 = load ptr, ptr %5, align 8
  %8 = load ptr, ptr %6, align 8
  %9 = getelementptr inbounds ptr, ptr %8, i64 19
  %10 = load ptr, ptr %9, align 8
  %11 = call { i32, ptr } %10(ptr noundef nonnull align 8 dereferenceable(576) %6, i32 noundef 1, i32 noundef 0, ptr noundef nonnull align 8 dereferenceable(56) %7)
  %12 = getelementptr inbounds nuw { i32, ptr }, ptr %3, i32 0, i32 0
  %13 = extractvalue { i32, ptr } %11, 0
  store i32 %13, ptr %12, align 8
  %14 = getelementptr inbounds nuw { i32, ptr }, ptr %3, i32 0, i32 1
  %15 = extractvalue { i32, ptr } %11, 1
  store ptr %15, ptr %14, align 8
  %16 = call noundef zeroext i1 @_ZNKSt10error_codecvbEv(ptr noundef nonnull align 8 dereferenceable(16) %3) #4
  br i1 %16, label %17, label %18

17:                                               ; preds = %2
  br label %91

18:                                               ; preds = %2
  %19 = load ptr, ptr %5, align 8
  %20 = load ptr, ptr %6, align 8
  %21 = getelementptr inbounds ptr, ptr %20, i64 19
  %22 = load ptr, ptr %21, align 8
  %23 = call { i32, ptr } %22(ptr noundef nonnull align 8 dereferenceable(576) %6, i32 noundef 2, i32 noundef 1, ptr noundef nonnull align 8 dereferenceable(56) %19)
  %24 = getelementptr inbounds nuw { i32, ptr }, ptr %3, i32 0, i32 0
  %25 = extractvalue { i32, ptr } %23, 0
  store i32 %25, ptr %24, align 8
  %26 = getelementptr inbounds nuw { i32, ptr }, ptr %3, i32 0, i32 1
  %27 = extractvalue { i32, ptr } %23, 1
  store ptr %27, ptr %26, align 8
  %28 = call noundef zeroext i1 @_ZNKSt10error_codecvbEv(ptr noundef nonnull align 8 dereferenceable(16) %3) #4
  br i1 %28, label %29, label %30

29:                                               ; preds = %18
  br label %91

30:                                               ; preds = %18
  %31 = load ptr, ptr %5, align 8
  %32 = load ptr, ptr %6, align 8
  %33 = getelementptr inbounds ptr, ptr %32, i64 19
  %34 = load ptr, ptr %33, align 8
  %35 = call { i32, ptr } %34(ptr noundef nonnull align 8 dereferenceable(576) %6, i32 noundef 6, i32 noundef 2, ptr noundef nonnull align 8 dereferenceable(56) %31)
  %36 = getelementptr inbounds nuw { i32, ptr }, ptr %3, i32 0, i32 0
  %37 = extractvalue { i32, ptr } %35, 0
  store i32 %37, ptr %36, align 8
  %38 = getelementptr inbounds nuw { i32, ptr }, ptr %3, i32 0, i32 1
  %39 = extractvalue { i32, ptr } %35, 1
  store ptr %39, ptr %38, align 8
  %40 = call noundef zeroext i1 @_ZNKSt10error_codecvbEv(ptr noundef nonnull align 8 dereferenceable(16) %3) #4
  br i1 %40, label %41, label %42

41:                                               ; preds = %30
  br label %91

42:                                               ; preds = %30
  %43 = load ptr, ptr %5, align 8
  %44 = load ptr, ptr %6, align 8
  %45 = getelementptr inbounds ptr, ptr %44, i64 19
  %46 = load ptr, ptr %45, align 8
  %47 = call { i32, ptr } %46(ptr noundef nonnull align 8 dereferenceable(576) %6, i32 noundef 32, i32 noundef 4, ptr noundef nonnull align 8 dereferenceable(56) %43)
  %48 = getelementptr inbounds nuw { i32, ptr }, ptr %3, i32 0, i32 0
  %49 = extractvalue { i32, ptr } %47, 0
  store i32 %49, ptr %48, align 8
  %50 = getelementptr inbounds nuw { i32, ptr }, ptr %3, i32 0, i32 1
  %51 = extractvalue { i32, ptr } %47, 1
  store ptr %51, ptr %50, align 8
  %52 = call noundef zeroext i1 @_ZNKSt10error_codecvbEv(ptr noundef nonnull align 8 dereferenceable(16) %3) #4
  br i1 %52, label %53, label %54

53:                                               ; preds = %42
  br label %91

54:                                               ; preds = %42
  %55 = load ptr, ptr %5, align 8
  %56 = load ptr, ptr %6, align 8
  %57 = getelementptr inbounds ptr, ptr %56, i64 19
  %58 = load ptr, ptr %57, align 8
  %59 = call { i32, ptr } %58(ptr noundef nonnull align 8 dereferenceable(576) %6, i32 noundef 3, i32 noundef 5, ptr noundef nonnull align 8 dereferenceable(56) %55)
  %60 = getelementptr inbounds nuw { i32, ptr }, ptr %3, i32 0, i32 0
  %61 = extractvalue { i32, ptr } %59, 0
  store i32 %61, ptr %60, align 8
  %62 = getelementptr inbounds nuw { i32, ptr }, ptr %3, i32 0, i32 1
  %63 = extractvalue { i32, ptr } %59, 1
  store ptr %63, ptr %62, align 8
  %64 = call noundef zeroext i1 @_ZNKSt10error_codecvbEv(ptr noundef nonnull align 8 dereferenceable(16) %3) #4
  br i1 %64, label %65, label %66

65:                                               ; preds = %54
  br label %91

66:                                               ; preds = %54
  %67 = load ptr, ptr %5, align 8
  %68 = load ptr, ptr %6, align 8
  %69 = getelementptr inbounds ptr, ptr %68, i64 19
  %70 = load ptr, ptr %69, align 8
  %71 = call { i32, ptr } %70(ptr noundef nonnull align 8 dereferenceable(576) %6, i32 noundef 4, i32 noundef 3, ptr noundef nonnull align 8 dereferenceable(56) %67)
  %72 = getelementptr inbounds nuw { i32, ptr }, ptr %3, i32 0, i32 0
  %73 = extractvalue { i32, ptr } %71, 0
  store i32 %73, ptr %72, align 8
  %74 = getelementptr inbounds nuw { i32, ptr }, ptr %3, i32 0, i32 1
  %75 = extractvalue { i32, ptr } %71, 1
  store ptr %75, ptr %74, align 8
  %76 = call noundef zeroext i1 @_ZNKSt10error_codecvbEv(ptr noundef nonnull align 8 dereferenceable(16) %3) #4
  br i1 %76, label %77, label %78

77:                                               ; preds = %66
  br label %91

78:                                               ; preds = %66
  %79 = load ptr, ptr %5, align 8
  %80 = load ptr, ptr %6, align 8
  %81 = getelementptr inbounds ptr, ptr %80, i64 19
  %82 = load ptr, ptr %81, align 8
  %83 = call { i32, ptr } %82(ptr noundef nonnull align 8 dereferenceable(576) %6, i32 noundef 5, i32 noundef 6, ptr noundef nonnull align 8 dereferenceable(56) %79)
  %84 = getelementptr inbounds nuw { i32, ptr }, ptr %3, i32 0, i32 0
  %85 = extractvalue { i32, ptr } %83, 0
  store i32 %85, ptr %84, align 8
  %86 = getelementptr inbounds nuw { i32, ptr }, ptr %3, i32 0, i32 1
  %87 = extractvalue { i32, ptr } %83, 1
  store ptr %87, ptr %86, align 8
  %88 = call noundef zeroext i1 @_ZNKSt10error_codecvbEv(ptr noundef nonnull align 8 dereferenceable(16) %3) #4
  br i1 %88, label %89, label %90

89:                                               ; preds = %78
  br label %91

90:                                               ; preds = %78
  call void @_ZNSt10error_codeC2IN4llvm16sampleprof_errorEvEET_(ptr noundef nonnull align 8 dereferenceable(16) %3, i32 noundef 0) #4
  br label %91

91:                                               ; preds = %90, %89, %77, %65, %53, %41, %29, %17
  %92 = load { i32, ptr }, ptr %3, align 8
  ret { i32, ptr } %92
}