; Function Attrs: mustprogress nounwind uwtable
define dso_local { i32, ptr } @_ZN4llvm10sampleprof28SampleProfileWriterExtBinary18writeDefaultLayoutERKNS0_16SampleProfileMapE(ptr noundef nonnull align 8 dereferenceable(576) %0, ptr noundef nonnull align 8 dereferenceable(56) %1) local_unnamed_addr #2 align 2 {
  %3 = load ptr, ptr %0, align 8
  %4 = getelementptr inbounds i8, ptr %3, i64 152
  %5 = load ptr, ptr %4, align 8
  %6 = tail call { i32, ptr } %5(ptr noundef nonnull align 8 dereferenceable(576) %0, i32 noundef 1, i32 noundef 0, ptr noundef nonnull align 8 dereferenceable(56) %1) #22
  %7 = extractvalue { i32, ptr } %6, 0
  %8 = extractvalue { i32, ptr } %6, 1
  %.not = icmp eq i32 %7, 0
  br i1 %.not, label %9, label %53

9:                                                ; preds = %2
  %10 = load ptr, ptr %0, align 8
  %11 = getelementptr inbounds i8, ptr %10, i64 152
  %12 = load ptr, ptr %11, align 8
  %13 = tail call { i32, ptr } %12(ptr noundef nonnull align 8 dereferenceable(576) %0, i32 noundef 2, i32 noundef 1, ptr noundef nonnull align 8 dereferenceable(56) %1) #22
  %14 = extractvalue { i32, ptr } %13, 0
  %15 = extractvalue { i32, ptr } %13, 1
  %.not15 = icmp eq i32 %14, 0
  br i1 %.not15, label %16, label %53

16:                                               ; preds = %9
  %17 = load ptr, ptr %0, align 8
  %18 = getelementptr inbounds i8, ptr %17, i64 152
  %19 = load ptr, ptr %18, align 8
  %20 = tail call { i32, ptr } %19(ptr noundef nonnull align 8 dereferenceable(576) %0, i32 noundef 6, i32 noundef 2, ptr noundef nonnull align 8 dereferenceable(56) %1) #22
  %21 = extractvalue { i32, ptr } %20, 0
  %22 = extractvalue { i32, ptr } %20, 1
  %.not16 = icmp eq i32 %21, 0
  br i1 %.not16, label %23, label %53

23:                                               ; preds = %16
  %24 = load ptr, ptr %0, align 8
  %25 = getelementptr inbounds i8, ptr %24, i64 152
  %26 = load ptr, ptr %25, align 8
  %27 = tail call { i32, ptr } %26(ptr noundef nonnull align 8 dereferenceable(576) %0, i32 noundef 32, i32 noundef 4, ptr noundef nonnull align 8 dereferenceable(56) %1) #22
  %28 = extractvalue { i32, ptr } %27, 0
  %29 = extractvalue { i32, ptr } %27, 1
  %.not17 = icmp eq i32 %28, 0
  br i1 %.not17, label %30, label %53

30:                                               ; preds = %23
  %31 = load ptr, ptr %0, align 8
  %32 = getelementptr inbounds i8, ptr %31, i64 152
  %33 = load ptr, ptr %32, align 8
  %34 = tail call { i32, ptr } %33(ptr noundef nonnull align 8 dereferenceable(576) %0, i32 noundef 3, i32 noundef 5, ptr noundef nonnull align 8 dereferenceable(56) %1) #22
  %35 = extractvalue { i32, ptr } %34, 0
  %36 = extractvalue { i32, ptr } %34, 1
  %.not18 = icmp eq i32 %35, 0
  br i1 %.not18, label %37, label %53

37:                                               ; preds = %30
  %38 = load ptr, ptr %0, align 8
  %39 = getelementptr inbounds i8, ptr %38, i64 152
  %40 = load ptr, ptr %39, align 8
  %41 = tail call { i32, ptr } %40(ptr noundef nonnull align 8 dereferenceable(576) %0, i32 noundef 4, i32 noundef 3, ptr noundef nonnull align 8 dereferenceable(56) %1) #22
  %42 = extractvalue { i32, ptr } %41, 0
  %43 = extractvalue { i32, ptr } %41, 1
  %.not19 = icmp eq i32 %42, 0
  br i1 %.not19, label %44, label %53

44:                                               ; preds = %37
  %45 = load ptr, ptr %0, align 8
  %46 = getelementptr inbounds i8, ptr %45, i64 152
  %47 = load ptr, ptr %46, align 8
  %48 = tail call { i32, ptr } %47(ptr noundef nonnull align 8 dereferenceable(576) %0, i32 noundef 5, i32 noundef 6, ptr noundef nonnull align 8 dereferenceable(56) %1) #22
  %49 = extractvalue { i32, ptr } %48, 0
  %50 = extractvalue { i32, ptr } %48, 1
  %.not20 = icmp eq i32 %49, 0
  br i1 %.not20, label %51, label %53

51:                                               ; preds = %44
  %52 = tail call noundef nonnull align 8 dereferenceable(8) ptr @_ZN4llvm19sampleprof_categoryEv() #22
  br label %53

53:                                               ; preds = %44, %37, %30, %23, %16, %9, %2, %51
  %.sroa.16.0 = phi ptr [ %8, %2 ], [ %15, %9 ], [ %22, %16 ], [ %29, %23 ], [ %36, %30 ], [ %43, %37 ], [ %50, %44 ], [ %52, %51 ]
  %.sroa.0.0 = phi i32 [ %7, %2 ], [ %14, %9 ], [ %21, %16 ], [ %28, %23 ], [ %35, %30 ], [ %42, %37 ], [ %49, %44 ], [ 0, %51 ]
  %.fca.0.insert = insertvalue { i32, ptr } poison, i32 %.sroa.0.0, 0
  %.fca.1.insert = insertvalue { i32, ptr } %.fca.0.insert, ptr %.sroa.16.0, 1
  ret { i32, ptr } %.fca.1.insert
}